target datalayout = "e-m:e-p270:32:32-p271:32:32-p272:64:64-i64:64-i128:128-f80:128-n8:16:32:64-S128"
target triple = "x86_64-pc-linux-gnu"

@UseAdaptiveSizePolicy = external global i8, align 1
@_ZN10PSScavenge19_tenuring_thresholdE = external global i32, align 4

; Function Attrs: mustprogress nounwind uwtable
define linkonce_odr hidden noundef i32 @_ZN10PSScavenge18tenuring_thresholdEv() #1 comdat align 2 {
  %1 = load i32, ptr @_ZN10PSScavenge19_tenuring_thresholdE, align 4
  ret i32 %1
}

; Function Attrs: mustprogress nounwind uwtable
define hidden noundef zeroext i1 @_ZNK20PSAdaptiveSizePolicy5printEv(ptr noundef nonnull align 8 dereferenceable(312) %0) unnamed_addr #1 align 2 {
  %2 = alloca i1, align 1
  %3 = alloca ptr, align 8
  store ptr %0, ptr %3, align 8
  %4 = load ptr, ptr %3, align 8
  %5 = load i8, ptr @UseAdaptiveSizePolicy, align 1
  %6 = trunc i8 %5 to i1
  br i1 %6, label %8, label %7

7:                                                ; preds = %1
  store i1 false, ptr %2, align 1
  br label %13

8:                                                ; preds = %1
  %9 = call noundef zeroext i1 @_ZNK18AdaptiveSizePolicy5printEv(ptr noundef nonnull align 8 dereferenceable(232) %4)
  br i1 %9, label %10, label %12

10:                                               ; preds = %8
  %11 = call noundef i32 @_ZN10PSScavenge18tenuring_thresholdEv()
  call void @_ZNK18AdaptiveSizePolicy24print_tenuring_thresholdEj(ptr noundef nonnull align 8 dereferenceable(232) %4, i32 noundef %11)
  store i1 true, ptr %2, align 1
  br label %13

12:                                               ; preds = %8
  store i1 false, ptr %2, align 1
  br label %13

13:                                               ; preds = %12, %10, %7
  %14 = load i1, ptr %2, align 1
  ret i1 %14
}