; Function Attrs: mustprogress nounwind uwtable
define hidden noundef zeroext i1 @_ZNK20PSAdaptiveSizePolicy5printEv(ptr noundef nonnull align 8 dereferenceable(312) %0) unnamed_addr #0 align 2 {
  %2 = load i8, ptr @UseAdaptiveSizePolicy, align 1
  %3 = trunc i8 %2 to i1
  br i1 %3, label %4, label %8

4:                                                ; preds = %1
  %5 = tail call noundef zeroext i1 @_ZNK18AdaptiveSizePolicy5printEv(ptr noundef nonnull align 8 dereferenceable(232) %0) #7
  br i1 %5, label %6, label %8

6:                                                ; preds = %4
  %7 = load i32, ptr @_ZN10PSScavenge19_tenuring_thresholdE, align 4
  tail call void @_ZNK18AdaptiveSizePolicy24print_tenuring_thresholdEj(ptr noundef nonnull align 8 dereferenceable(232) %0, i32 noundef %7) #7
  br label %8

8:                                                ; preds = %4, %1, %6
  %.0 = phi i1 [ true, %6 ], [ false, %1 ], [ false, %4 ]
  ret i1 %.0
}